target datalayout = "e-m:e-p270:32:32-p271:32:32-p272:64:64-i64:64-i128:128-f80:128-n8:16:32:64-S128"
target triple = "x86_64-pc-linux-gnu"

%struct.archive_write = type { %struct.archive, i32, i64, i64, ptr, i64, ptr, ptr, ptr, ptr, ptr, i32, i32, ptr, ptr, ptr, ptr, ptr, ptr, ptr, ptr, ptr, ptr, ptr, ptr, ptr, ptr }
%struct.archive = type { i32, i32, ptr, i32, ptr, i32, i32, ptr, %struct.archive_string, ptr, i32, i32, ptr, ptr, i64, i64, i64, i8, i64 }
%struct.archive_string = type { ptr, i64, i64 }
%struct.archive_write_filter = type { i64, ptr, ptr, ptr, ptr, ptr, ptr, ptr, ptr, ptr, ptr, i32, i32, i32, i32 }

@.str.7 = private unnamed_addr constant [19 x i8] c"archive_write_free\00", align 1

; Function Attrs: nounwind uwtable
define dso_local void @__archive_write_filters_free(ptr noundef %0) #0 {
  %2 = alloca ptr, align 8
  %3 = alloca ptr, align 8
  %4 = alloca i32, align 4
  %5 = alloca i32, align 4
  %6 = alloca ptr, align 8
  store ptr %0, ptr %2, align 8, !tbaa !26
  call void @llvm.lifetime.start.p0(i64 8, ptr %3) #9
  %7 = load ptr, ptr %2, align 8, !tbaa !26
  store ptr %7, ptr %3, align 8, !tbaa !4
  call void @llvm.lifetime.start.p0(i64 4, ptr %4) #9
  store i32 0, ptr %4, align 4, !tbaa !28
  call void @llvm.lifetime.start.p0(i64 4, ptr %5) #9
  br label %8

8:                                                ; preds = %41, %1
  %9 = load ptr, ptr %3, align 8, !tbaa !4
  %10 = getelementptr inbounds nuw %struct.archive_write, ptr %9, i32 0, i32 13
  %11 = load ptr, ptr %10, align 8, !tbaa !37
  %12 = icmp ne ptr %11, null
  br i1 %12, label %13, label %48

13:                                               ; preds = %8
  call void @llvm.lifetime.start.p0(i64 8, ptr %6) #9
  %14 = load ptr, ptr %3, align 8, !tbaa !4
  %15 = getelementptr inbounds nuw %struct.archive_write, ptr %14, i32 0, i32 13
  %16 = load ptr, ptr %15, align 8, !tbaa !37
  %17 = getelementptr inbounds nuw %struct.archive_write_filter, ptr %16, i32 0, i32 2
  %18 = load ptr, ptr %17, align 8, !tbaa !39
  store ptr %18, ptr %6, align 8, !tbaa !33
  %19 = load ptr, ptr %3, align 8, !tbaa !4
  %20 = getelementptr inbounds nuw %struct.archive_write, ptr %19, i32 0, i32 13
  %21 = load ptr, ptr %20, align 8, !tbaa !37
  %22 = getelementptr inbounds nuw %struct.archive_write_filter, ptr %21, i32 0, i32 8
  %23 = load ptr, ptr %22, align 8, !tbaa !52
  %24 = icmp ne ptr %23, null
  br i1 %24, label %25, label %41

25:                                               ; preds = %13
  %26 = load ptr, ptr %3, align 8, !tbaa !4
  %27 = getelementptr inbounds nuw %struct.archive_write, ptr %26, i32 0, i32 13
  %28 = load ptr, ptr %27, align 8, !tbaa !37
  %29 = getelementptr inbounds nuw %struct.archive_write_filter, ptr %28, i32 0, i32 8
  %30 = load ptr, ptr %29, align 8, !tbaa !52
  %31 = load ptr, ptr %3, align 8, !tbaa !4
  %32 = getelementptr inbounds nuw %struct.archive_write, ptr %31, i32 0, i32 13
  %33 = load ptr, ptr %32, align 8, !tbaa !37
  %34 = call i32 %30(ptr noundef %33)
  store i32 %34, ptr %5, align 4, !tbaa !28
  %35 = load i32, ptr %4, align 4, !tbaa !28
  %36 = load i32, ptr %5, align 4, !tbaa !28
  %37 = icmp sgt i32 %35, %36
  br i1 %37, label %38, label %40

38:                                               ; preds = %25
  %39 = load i32, ptr %5, align 4, !tbaa !28
  store i32 %39, ptr %4, align 4, !tbaa !28
  br label %40

40:                                               ; preds = %38, %25
  br label %41

41:                                               ; preds = %40, %13
  %42 = load ptr, ptr %3, align 8, !tbaa !4
  %43 = getelementptr inbounds nuw %struct.archive_write, ptr %42, i32 0, i32 13
  %44 = load ptr, ptr %43, align 8, !tbaa !37
  call void @free(ptr noundef %44) #9
  %45 = load ptr, ptr %6, align 8, !tbaa !33
  %46 = load ptr, ptr %3, align 8, !tbaa !4
  %47 = getelementptr inbounds nuw %struct.archive_write, ptr %46, i32 0, i32 13
  store ptr %45, ptr %47, align 8, !tbaa !37
  call void @llvm.lifetime.end.p0(i64 8, ptr %6) #9
  br label %8, !llvm.loop !70

48:                                               ; preds = %8
  %49 = load ptr, ptr %3, align 8, !tbaa !4
  %50 = getelementptr inbounds nuw %struct.archive_write, ptr %49, i32 0, i32 14
  store ptr null, ptr %50, align 8, !tbaa !38
  call void @llvm.lifetime.end.p0(i64 4, ptr %5) #9
  call void @llvm.lifetime.end.p0(i64 4, ptr %4) #9
  call void @llvm.lifetime.end.p0(i64 8, ptr %3) #9
  ret void
}

; Function Attrs: nounwind uwtable
define internal i32 @_archive_write_free(ptr noundef %0) #0 {
  %2 = alloca i32, align 4
  %3 = alloca ptr, align 8
  %4 = alloca ptr, align 8
  %5 = alloca i32, align 4
  %6 = alloca i32, align 4
  %7 = alloca i32, align 4
  %8 = alloca i32, align 4
  store ptr %0, ptr %3, align 8, !tbaa !26
  call void @llvm.lifetime.start.p0(i64 8, ptr %4) #9
  %9 = load ptr, ptr %3, align 8, !tbaa !26
  store ptr %9, ptr %4, align 8, !tbaa !4
  call void @llvm.lifetime.start.p0(i64 4, ptr %5) #9
  store i32 0, ptr %5, align 4, !tbaa !28
  call void @llvm.lifetime.start.p0(i64 4, ptr %6) #9
  %10 = load ptr, ptr %3, align 8, !tbaa !26
  %11 = icmp eq ptr %10, null
  br i1 %11, label %12, label %13

12:                                               ; preds = %1
  store i32 0, ptr %2, align 4
  store i32 1, ptr %7, align 4
  br label %87

13:                                               ; preds = %1
  br label %14

14:                                               ; preds = %13
  call void @llvm.lifetime.start.p0(i64 4, ptr %8) #9
  %15 = load ptr, ptr %4, align 8, !tbaa !4
  %16 = getelementptr inbounds nuw %struct.archive_write, ptr %15, i32 0, i32 0
  %17 = call i32 @__archive_check_magic(ptr noundef %16, i32 noundef -1329217314, i32 noundef 65535, ptr noundef @.str.7)
  store i32 %17, ptr %8, align 4, !tbaa !28
  %18 = load i32, ptr %8, align 4, !tbaa !28
  %19 = icmp eq i32 %18, -30
  br i1 %19, label %20, label %21

20:                                               ; preds = %14
  store i32 -30, ptr %2, align 4
  store i32 1, ptr %7, align 4
  br label %22

21:                                               ; preds = %14
  store i32 0, ptr %7, align 4
  br label %22

22:                                               ; preds = %21, %20
  call void @llvm.lifetime.end.p0(i64 4, ptr %8) #9
  %23 = load i32, ptr %7, align 4
  switch i32 %23, label %87 [
    i32 0, label %24
  ]

24:                                               ; preds = %22
  br label %25

25:                                               ; preds = %24
  br label %26

26:                                               ; preds = %25
  %27 = load ptr, ptr %4, align 8, !tbaa !4
  %28 = getelementptr inbounds nuw %struct.archive_write, ptr %27, i32 0, i32 0
  %29 = getelementptr inbounds nuw %struct.archive, ptr %28, i32 0, i32 1
  %30 = load i32, ptr %29, align 4, !tbaa !19
  %31 = icmp ne i32 %30, 32768
  br i1 %31, label %32, label %36

32:                                               ; preds = %26
  %33 = load ptr, ptr %4, align 8, !tbaa !4
  %34 = getelementptr inbounds nuw %struct.archive_write, ptr %33, i32 0, i32 0
  %35 = call i32 @archive_write_close(ptr noundef %34)
  store i32 %35, ptr %5, align 4, !tbaa !28
  br label %36

36:                                               ; preds = %32, %26
  %37 = load ptr, ptr %4, align 8, !tbaa !4
  %38 = getelementptr inbounds nuw %struct.archive_write, ptr %37, i32 0, i32 23
  %39 = load ptr, ptr %38, align 8, !tbaa !73
  %40 = icmp ne ptr %39, null
  br i1 %40, label %41, label %53

41:                                               ; preds = %36
  %42 = load ptr, ptr %4, align 8, !tbaa !4
  %43 = getelementptr inbounds nuw %struct.archive_write, ptr %42, i32 0, i32 23
  %44 = load ptr, ptr %43, align 8, !tbaa !73
  %45 = load ptr, ptr %4, align 8, !tbaa !4
  %46 = call i32 %44(ptr noundef %45)
  store i32 %46, ptr %6, align 4, !tbaa !28
  %47 = load i32, ptr %6, align 4, !tbaa !28
  %48 = load i32, ptr %5, align 4, !tbaa !28
  %49 = icmp slt i32 %47, %48
  br i1 %49, label %50, label %52

50:                                               ; preds = %41
  %51 = load i32, ptr %6, align 4, !tbaa !28
  store i32 %51, ptr %5, align 4, !tbaa !28
  br label %52

52:                                               ; preds = %50, %41
  br label %53

53:                                               ; preds = %52, %36
  %54 = load ptr, ptr %3, align 8, !tbaa !26
  call void @__archive_write_filters_free(ptr noundef %54)
  %55 = load ptr, ptr %4, align 8, !tbaa !4
  %56 = getelementptr inbounds nuw %struct.archive_write, ptr %55, i32 0, i32 4
  %57 = load ptr, ptr %56, align 8, !tbaa !25
  %58 = ptrtoint ptr %57 to i64
  %59 = inttoptr i64 %58 to ptr
  call void @free(ptr noundef %59) #9
  %60 = load ptr, ptr %4, align 8, !tbaa !4
  %61 = getelementptr inbounds nuw %struct.archive_write, ptr %60, i32 0, i32 0
  %62 = getelementptr inbounds nuw %struct.archive, ptr %61, i32 0, i32 8
  call void @archive_string_free(ptr noundef %62)
  %63 = load ptr, ptr %4, align 8, !tbaa !4
  %64 = getelementptr inbounds nuw %struct.archive_write, ptr %63, i32 0, i32 24
  %65 = load ptr, ptr %64, align 8, !tbaa !68
  %66 = icmp ne ptr %65, null
  br i1 %66, label %67, label %78

67:                                               ; preds = %53
  %68 = load ptr, ptr %4, align 8, !tbaa !4
  %69 = getelementptr inbounds nuw %struct.archive_write, ptr %68, i32 0, i32 24
  %70 = load ptr, ptr %69, align 8, !tbaa !68
  %71 = load ptr, ptr %4, align 8, !tbaa !4
  %72 = getelementptr inbounds nuw %struct.archive_write, ptr %71, i32 0, i32 24
  %73 = load ptr, ptr %72, align 8, !tbaa !68
  %74 = call i64 @strlen(ptr noundef %73) #12
  call void @llvm.memset.p0.i64(ptr align 1 %70, i8 0, i64 %74, i1 false)
  %75 = load ptr, ptr %4, align 8, !tbaa !4
  %76 = getelementptr inbounds nuw %struct.archive_write, ptr %75, i32 0, i32 24
  %77 = load ptr, ptr %76, align 8, !tbaa !68
  call void @free(ptr noundef %77) #9
  br label %78

78:                                               ; preds = %67, %53
  %79 = load ptr, ptr %4, align 8, !tbaa !4
  %80 = getelementptr inbounds nuw %struct.archive_write, ptr %79, i32 0, i32 0
  %81 = getelementptr inbounds nuw %struct.archive, ptr %80, i32 0, i32 0
  store i32 0, ptr %81, align 8, !tbaa !9
  %82 = load ptr, ptr %4, align 8, !tbaa !4
  %83 = getelementptr inbounds nuw %struct.archive_write, ptr %82, i32 0, i32 0
  %84 = call i32 @__archive_clean(ptr noundef %83)
  %85 = load ptr, ptr %4, align 8, !tbaa !4
  call void @free(ptr noundef %85) #9
  %86 = load i32, ptr %5, align 4, !tbaa !28
  store i32 %86, ptr %2, align 4
  store i32 1, ptr %7, align 4
  br label %87

87:                                               ; preds = %78, %22, %12
  call void @llvm.lifetime.end.p0(i64 4, ptr %6) #9
  call void @llvm.lifetime.end.p0(i64 4, ptr %5) #9
  call void @llvm.lifetime.end.p0(i64 8, ptr %4) #9
  %88 = load i32, ptr %2, align 4
  ret i32 %88
}