; Function Attrs: nounwind uwtable
define internal i32 @_archive_write_free(ptr noundef %0) #3 {
  %2 = icmp eq ptr %0, null
  br i1 %2, label %38, label %3

3:                                                ; preds = %1
  %4 = tail call i32 @__archive_check_magic(ptr noundef nonnull %0, i32 noundef -1329217314, i32 noundef 65535, ptr noundef nonnull @.str.7) #13
  %.not = icmp eq i32 %4, -30
  br i1 %.not, label %38, label %5

5:                                                ; preds = %3
  %6 = getelementptr inbounds nuw i8, ptr %0, i64 4
  %7 = load i32, ptr %6, align 4, !tbaa !17
  %.not31 = icmp eq i32 %7, 32768
  br i1 %.not31, label %10, label %8

8:                                                ; preds = %5
  %9 = tail call i32 @archive_write_close(ptr noundef nonnull %0) #13
  br label %10

10:                                               ; preds = %8, %5
  %.025 = phi i32 [ %9, %8 ], [ 0, %5 ]
  %11 = getelementptr inbounds nuw i8, ptr %0, i64 312
  %12 = load ptr, ptr %11, align 8, !tbaa !63
  %.not32 = icmp eq ptr %12, null
  br i1 %.not32, label %15, label %13

13:                                               ; preds = %10
  %14 = tail call i32 %12(ptr noundef nonnull %0) #13
  %spec.select = tail call i32 @llvm.smin.i32(i32 %14, i32 %.025)
  br label %15

15:                                               ; preds = %13, %10
  %.126 = phi i32 [ %.025, %10 ], [ %spec.select, %13 ]
  %16 = getelementptr inbounds nuw i8, ptr %0, i64 232
  %17 = load ptr, ptr %16, align 8, !tbaa !30
  %.not16.i = icmp eq ptr %17, null
  br i1 %.not16.i, label %__archive_write_filters_free.exit, label %.lr.ph.i

.lr.ph.i:                                         ; preds = %15, %25
  %18 = phi ptr [ %20, %25 ], [ %17, %15 ]
  %19 = getelementptr inbounds nuw i8, ptr %18, i64 16
  %20 = load ptr, ptr %19, align 8, !tbaa !32
  %21 = getelementptr inbounds nuw i8, ptr %18, i64 64
  %22 = load ptr, ptr %21, align 8, !tbaa !42
  %.not15.i = icmp eq ptr %22, null
  br i1 %.not15.i, label %25, label %23

23:                                               ; preds = %.lr.ph.i
  %24 = tail call i32 %22(ptr noundef nonnull %18) #13
  %.pre.i = load ptr, ptr %16, align 8, !tbaa !30
  br label %25

25:                                               ; preds = %23, %.lr.ph.i
  %26 = phi ptr [ %18, %.lr.ph.i ], [ %.pre.i, %23 ]
  tail call void @free(ptr noundef %26) #13
  store ptr %20, ptr %16, align 8, !tbaa !30
  %.not.i = icmp eq ptr %20, null
  br i1 %.not.i, label %__archive_write_filters_free.exit, label %.lr.ph.i, !llvm.loop !46

__archive_write_filters_free.exit:                ; preds = %25, %15
  %27 = getelementptr inbounds nuw i8, ptr %0, i64 240
  store ptr null, ptr %27, align 8, !tbaa !31
  %28 = getelementptr inbounds nuw i8, ptr %0, i64 168
  %29 = load ptr, ptr %28, align 8, !tbaa !22
  tail call void @free(ptr noundef %29) #13
  %30 = getelementptr inbounds nuw i8, ptr %0, i64 48
  tail call void @archive_string_free(ptr noundef nonnull %30) #13
  %31 = getelementptr inbounds nuw i8, ptr %0, i64 320
  %32 = load ptr, ptr %31, align 8, !tbaa !60
  %.not33 = icmp eq ptr %32, null
  br i1 %.not33, label %36, label %33

33:                                               ; preds = %__archive_write_filters_free.exit
  %34 = tail call i64 @strlen(ptr noundef nonnull dereferenceable(1) %32) #15
  tail call void @llvm.memset.p0.i64(ptr nonnull align 1 %32, i8 0, i64 %34, i1 false)
  %35 = load ptr, ptr %31, align 8, !tbaa !60
  tail call void @free(ptr noundef %35) #13
  br label %36

36:                                               ; preds = %33, %__archive_write_filters_free.exit
  store i32 0, ptr %0, align 8, !tbaa !4
  %37 = tail call i32 @__archive_clean(ptr noundef nonnull %0) #13
  tail call void @free(ptr noundef nonnull %0) #13
  br label %38

38:                                               ; preds = %1, %3, %36
  %.0 = phi i32 [ %.126, %36 ], [ -30, %3 ], [ 0, %1 ]
  ret i32 %.0
}